target datalayout = "e-m:e-p270:32:32-p271:32:32-p272:64:64-i64:64-i128:128-f80:128-n8:16:32:64-S128"
target triple = "x86_64-pc-linux-gnu"

%class.G1GCPhaseTimes = type { i32, i64, double, [45 x ptr], double, double, double, double, double, double, double, double, double, double, double, double, double, double, double, double, double, double, double, double, double, double, double, double, double, double, %class.ReferenceProcessorPhaseTimes, %class.WeakProcessorTimes }
%class.ReferenceProcessorPhaseTimes = type { [5 x ptr], [3 x double], [3 x double], ptr, double, [4 x i64], [4 x i64], i8, ptr }
%class.WeakProcessorTimes = type { i32, i32, double, [10 x ptr] }
%class.WorkerDataArray = type { ptr, i32, ptr, ptr, i8, [9 x ptr] }
%class.WorkerDataArray.7 = type { ptr, i32, ptr, ptr, i8, [9 x ptr] }

; Function Attrs: mustprogress nounwind uwtable
define linkonce_odr hidden void @_ZN15WorkerDataArrayImE3setEjm(ptr noundef nonnull align 8 dereferenceable(112) %0, i32 noundef %1, i64 noundef %2) #1 comdat align 2 {
  %4 = alloca ptr, align 8
  %5 = alloca i32, align 4
  %6 = alloca i64, align 8
  store ptr %0, ptr %4, align 8
  store i32 %1, ptr %5, align 4
  store i64 %2, ptr %6, align 8
  %7 = load ptr, ptr %4, align 8
  %8 = load i64, ptr %6, align 8
  %9 = getelementptr inbounds %class.WorkerDataArray.7, ptr %7, i32 0, i32 0
  %10 = load ptr, ptr %9, align 8
  %11 = load i32, ptr %5, align 4
  %12 = zext i32 %11 to i64
  %13 = getelementptr inbounds i64, ptr %10, i64 %12
  store i64 %8, ptr %13, align 8
  ret void
}

; Function Attrs: mustprogress nounwind uwtable
define linkonce_odr hidden void @_ZN15WorkerDataArrayIdE20set_thread_work_itemEjmj(ptr noundef nonnull align 8 dereferenceable(112) %0, i32 noundef %1, i64 noundef %2, i32 noundef %3) #1 comdat align 2 {
  %5 = alloca ptr, align 8
  %6 = alloca i32, align 4
  %7 = alloca i64, align 8
  %8 = alloca i32, align 4
  store ptr %0, ptr %5, align 8
  store i32 %1, ptr %6, align 4
  store i64 %2, ptr %7, align 8
  store i32 %3, ptr %8, align 4
  %9 = load ptr, ptr %5, align 8
  %10 = getelementptr inbounds %class.WorkerDataArray, ptr %9, i32 0, i32 5
  %11 = load i32, ptr %8, align 4
  %12 = zext i32 %11 to i64
  %13 = getelementptr inbounds [9 x ptr], ptr %10, i64 0, i64 %12
  %14 = load ptr, ptr %13, align 8
  %15 = load i32, ptr %6, align 4
  %16 = load i64, ptr %7, align 8
  call void @_ZN15WorkerDataArrayImE3setEjm(ptr noundef nonnull align 8 dereferenceable(112) %14, i32 noundef %15, i64 noundef %16)
  ret void
}

; Function Attrs: mustprogress nounwind uwtable
define hidden void @_ZN14G1GCPhaseTimes23record_thread_work_itemENS_11GCParPhasesEjmj(ptr noundef nonnull align 8 dereferenceable(872) %0, i32 noundef %1, i32 noundef %2, i64 noundef %3, i32 noundef %4) #1 align 2 {
  %6 = alloca ptr, align 8
  %7 = alloca i32, align 4
  %8 = alloca i32, align 4
  %9 = alloca i64, align 8
  %10 = alloca i32, align 4
  store ptr %0, ptr %6, align 8
  store i32 %1, ptr %7, align 4
  store i32 %2, ptr %8, align 4
  store i64 %3, ptr %9, align 8
  store i32 %4, ptr %10, align 4
  %11 = load ptr, ptr %6, align 8
  %12 = getelementptr inbounds %class.G1GCPhaseTimes, ptr %11, i32 0, i32 3
  %13 = load i32, ptr %7, align 4
  %14 = zext i32 %13 to i64
  %15 = getelementptr inbounds [45 x ptr], ptr %12, i64 0, i64 %14
  %16 = load ptr, ptr %15, align 8
  %17 = load i32, ptr %8, align 4
  %18 = load i64, ptr %9, align 8
  %19 = load i32, ptr %10, align 4
  call void @_ZN15WorkerDataArrayIdE20set_thread_work_itemEjmj(ptr noundef nonnull align 8 dereferenceable(112) %16, i32 noundef %17, i64 noundef %18, i32 noundef %19)
  ret void
}