; Function Attrs: mustprogress nofree norecurse nosync nounwind willreturn memory(readwrite, inaccessiblemem: none) uwtable
define hidden void @_ZN14G1GCPhaseTimes23record_thread_work_itemENS_11GCParPhasesEjmj(ptr nocapture noundef nonnull readonly align 8 dereferenceable(872) %0, i32 noundef %1, i32 noundef %2, i64 noundef %3, i32 noundef %4) local_unnamed_addr #5 align 2 {
  %6 = getelementptr inbounds i8, ptr %0, i64 24
  %7 = zext i32 %1 to i64
  %8 = getelementptr inbounds [45 x ptr], ptr %6, i64 0, i64 %7
  %9 = load ptr, ptr %8, align 8
  %10 = getelementptr inbounds i8, ptr %9, i64 40
  %11 = zext i32 %4 to i64
  %12 = getelementptr inbounds [9 x ptr], ptr %10, i64 0, i64 %11
  %13 = load ptr, ptr %12, align 8
  %14 = load ptr, ptr %13, align 8
  %15 = zext i32 %2 to i64
  %16 = getelementptr inbounds i64, ptr %14, i64 %15
  store i64 %3, ptr %16, align 8
  ret void
}